target datalayout = "e-m:e-p270:32:32-p271:32:32-p272:64:64-i64:64-i128:128-f80:128-n8:16:32:64-S128"
target triple = "x86_64-pc-linux-gnu"

%struct._header_field_info = type { ptr, ptr, i32, i32, ptr, i64, ptr, i32, i32, i32, i32, ptr }

@hf_usb_vid_control_default = internal global i32 0, align 4
@hf_usb_vid_control_min = internal global i32 0, align 4
@hf_usb_vid_control_max = internal global i32 0, align 4
@hf_usb_vid_control_res = internal global i32 0, align 4
@.str.42 = private unnamed_addr constant [11 x i8] c"Resolution\00", align 1
@hf_usb_vid_control_cur = internal global i32 0, align 4
@hf_usb_vid_control_value = internal global i32 0, align 4
@.str.502 = private unnamed_addr constant [6 x i8] c"Value\00", align 1
@.str.588 = private unnamed_addr constant [14 x i8] c"Default Value\00", align 1
@.str.589 = private unnamed_addr constant [10 x i8] c"Min Value\00", align 1
@.str.590 = private unnamed_addr constant [10 x i8] c"Max Value\00", align 1
@.str.591 = private unnamed_addr constant [14 x i8] c"Current Value\00", align 1
@.str.592 = private unnamed_addr constant [29 x i8] c"%s:%u: failed assertion \22%s\22\00", align 1
@.str.593 = private unnamed_addr constant [35 x i8] c"epan/dissectors/packet-usb-video.c\00", align 1
@.str.595 = private unnamed_addr constant [3 x i8] c"%s\00", align 1

; Function Attrs: null_pointer_is_valid sspstrong uwtable
define internal void @dissect_usb_vid_control_value(ptr noundef %0, ptr noundef %1, i32 noundef %2, i8 noundef zeroext %3) #0 {
  %5 = alloca ptr, align 8
  %6 = alloca ptr, align 8
  %7 = alloca i32, align 4
  %8 = alloca i8, align 1
  %9 = alloca i32, align 4
  %10 = alloca ptr, align 8
  %11 = alloca i32, align 4
  %12 = alloca ptr, align 8
  store ptr %0, ptr %5, align 8
  store ptr %1, ptr %6, align 8
  store i32 %2, ptr %7, align 4
  store i8 %3, ptr %8, align 1
  call void @llvm.lifetime.start.p0(i64 4, ptr %9) #6
  call void @llvm.lifetime.start.p0(i64 8, ptr %10) #6
  call void @llvm.lifetime.start.p0(i64 4, ptr %11) #6
  %13 = load i8, ptr %8, align 1
  %14 = zext i8 %13 to i32
  switch i32 %14, label %25 [
    i32 135, label %15
    i32 130, label %17
    i32 3, label %17
    i32 131, label %19
    i32 4, label %19
    i32 132, label %21
    i32 129, label %23
    i32 1, label %23
    i32 0, label %23
  ]

15:                                               ; preds = %4
  %16 = load i32, ptr @hf_usb_vid_control_default, align 4
  store i32 %16, ptr %11, align 4
  store ptr @.str.588, ptr %10, align 8
  br label %26

17:                                               ; preds = %4, %4
  %18 = load i32, ptr @hf_usb_vid_control_min, align 4
  store i32 %18, ptr %11, align 4
  store ptr @.str.589, ptr %10, align 8
  br label %26

19:                                               ; preds = %4, %4
  %20 = load i32, ptr @hf_usb_vid_control_max, align 4
  store i32 %20, ptr %11, align 4
  store ptr @.str.590, ptr %10, align 8
  br label %26

21:                                               ; preds = %4
  %22 = load i32, ptr @hf_usb_vid_control_res, align 4
  store i32 %22, ptr %11, align 4
  store ptr @.str.42, ptr %10, align 8
  br label %26

23:                                               ; preds = %4, %4, %4
  %24 = load i32, ptr @hf_usb_vid_control_cur, align 4
  store i32 %24, ptr %11, align 4
  store ptr @.str.591, ptr %10, align 8
  br label %26

25:                                               ; preds = %4
  store i32 -1, ptr %11, align 4
  store ptr @.str.502, ptr %10, align 8
  br label %26

26:                                               ; preds = %25, %23, %21, %19, %17, %15
  %27 = load ptr, ptr %6, align 8
  %28 = load i32, ptr %7, align 4
  %29 = call i32 @tvb_reported_length_remaining(ptr noundef %27, i32 noundef %28)
  store i32 %29, ptr %9, align 4
  %30 = load i32, ptr %11, align 4
  %31 = icmp ne i32 %30, -1
  br i1 %31, label %32, label %128

32:                                               ; preds = %26
  call void @llvm.lifetime.start.p0(i64 8, ptr %12) #6
  %33 = load i32, ptr %11, align 4
  %34 = call ptr @proto_registrar_get_nth(i32 noundef %33)
  store ptr %34, ptr %12, align 8
  %35 = load ptr, ptr %12, align 8
  %36 = getelementptr inbounds nuw %struct._header_field_info, ptr %35, i32 0, i32 2
  %37 = load i32, ptr %36, align 8
  %38 = icmp eq i32 %37, 12
  br i1 %38, label %124, label %39

39:                                               ; preds = %32
  %40 = load ptr, ptr %12, align 8
  %41 = getelementptr inbounds nuw %struct._header_field_info, ptr %40, i32 0, i32 2
  %42 = load i32, ptr %41, align 8
  %43 = icmp eq i32 %42, 13
  br i1 %43, label %124, label %44

44:                                               ; preds = %39
  %45 = load ptr, ptr %12, align 8
  %46 = getelementptr inbounds nuw %struct._header_field_info, ptr %45, i32 0, i32 2
  %47 = load i32, ptr %46, align 8
  %48 = icmp eq i32 %47, 14
  br i1 %48, label %124, label %49

49:                                               ; preds = %44
  %50 = load ptr, ptr %12, align 8
  %51 = getelementptr inbounds nuw %struct._header_field_info, ptr %50, i32 0, i32 2
  %52 = load i32, ptr %51, align 8
  %53 = icmp eq i32 %52, 15
  br i1 %53, label %124, label %54

54:                                               ; preds = %49
  %55 = load ptr, ptr %12, align 8
  %56 = getelementptr inbounds nuw %struct._header_field_info, ptr %55, i32 0, i32 2
  %57 = load i32, ptr %56, align 8
  %58 = icmp eq i32 %57, 16
  br i1 %58, label %124, label %59

59:                                               ; preds = %54
  %60 = load ptr, ptr %12, align 8
  %61 = getelementptr inbounds nuw %struct._header_field_info, ptr %60, i32 0, i32 2
  %62 = load i32, ptr %61, align 8
  %63 = icmp eq i32 %62, 17
  br i1 %63, label %124, label %64

64:                                               ; preds = %59
  %65 = load ptr, ptr %12, align 8
  %66 = getelementptr inbounds nuw %struct._header_field_info, ptr %65, i32 0, i32 2
  %67 = load i32, ptr %66, align 8
  %68 = icmp eq i32 %67, 18
  br i1 %68, label %124, label %69

69:                                               ; preds = %64
  %70 = load ptr, ptr %12, align 8
  %71 = getelementptr inbounds nuw %struct._header_field_info, ptr %70, i32 0, i32 2
  %72 = load i32, ptr %71, align 8
  %73 = icmp eq i32 %72, 19
  br i1 %73, label %124, label %74

74:                                               ; preds = %69
  %75 = load ptr, ptr %12, align 8
  %76 = getelementptr inbounds nuw %struct._header_field_info, ptr %75, i32 0, i32 2
  %77 = load i32, ptr %76, align 8
  %78 = icmp eq i32 %77, 3
  br i1 %78, label %124, label %79

79:                                               ; preds = %74
  %80 = load ptr, ptr %12, align 8
  %81 = getelementptr inbounds nuw %struct._header_field_info, ptr %80, i32 0, i32 2
  %82 = load i32, ptr %81, align 8
  %83 = icmp eq i32 %82, 4
  br i1 %83, label %124, label %84

84:                                               ; preds = %79
  %85 = load ptr, ptr %12, align 8
  %86 = getelementptr inbounds nuw %struct._header_field_info, ptr %85, i32 0, i32 2
  %87 = load i32, ptr %86, align 8
  %88 = icmp eq i32 %87, 5
  br i1 %88, label %124, label %89

89:                                               ; preds = %84
  %90 = load ptr, ptr %12, align 8
  %91 = getelementptr inbounds nuw %struct._header_field_info, ptr %90, i32 0, i32 2
  %92 = load i32, ptr %91, align 8
  %93 = icmp eq i32 %92, 6
  br i1 %93, label %124, label %94

94:                                               ; preds = %89
  %95 = load ptr, ptr %12, align 8
  %96 = getelementptr inbounds nuw %struct._header_field_info, ptr %95, i32 0, i32 2
  %97 = load i32, ptr %96, align 8
  %98 = icmp eq i32 %97, 7
  br i1 %98, label %124, label %99

99:                                               ; preds = %94
  %100 = load ptr, ptr %12, align 8
  %101 = getelementptr inbounds nuw %struct._header_field_info, ptr %100, i32 0, i32 2
  %102 = load i32, ptr %101, align 8
  %103 = icmp eq i32 %102, 35
  br i1 %103, label %124, label %104

104:                                              ; preds = %99
  %105 = load ptr, ptr %12, align 8
  %106 = getelementptr inbounds nuw %struct._header_field_info, ptr %105, i32 0, i32 2
  %107 = load i32, ptr %106, align 8
  %108 = icmp eq i32 %107, 8
  br i1 %108, label %124, label %109

109:                                              ; preds = %104
  %110 = load ptr, ptr %12, align 8
  %111 = getelementptr inbounds nuw %struct._header_field_info, ptr %110, i32 0, i32 2
  %112 = load i32, ptr %111, align 8
  %113 = icmp eq i32 %112, 9
  br i1 %113, label %124, label %114

114:                                              ; preds = %109
  %115 = load ptr, ptr %12, align 8
  %116 = getelementptr inbounds nuw %struct._header_field_info, ptr %115, i32 0, i32 2
  %117 = load i32, ptr %116, align 8
  %118 = icmp eq i32 %117, 10
  br i1 %118, label %124, label %119

119:                                              ; preds = %114
  %120 = load ptr, ptr %12, align 8
  %121 = getelementptr inbounds nuw %struct._header_field_info, ptr %120, i32 0, i32 2
  %122 = load i32, ptr %121, align 8
  %123 = icmp eq i32 %122, 11
  br i1 %123, label %124, label %125

124:                                              ; preds = %119, %114, %109, %104, %99, %94, %89, %84, %79, %74, %69, %64, %59, %54, %49, %44, %39, %32
  br label %127

125:                                              ; preds = %119
  call void (ptr, ...) @proto_report_dissector_bug(ptr noundef @.str.592, ptr noundef @.str.593, i32 noundef 1747, ptr noundef @.str.594) #7
  unreachable

126:                                              ; No predecessors!
  br label %127

127:                                              ; preds = %126, %124
  call void @llvm.lifetime.end.p0(i64 8, ptr %12) #6
  br label %128

128:                                              ; preds = %127, %26
  %129 = load i32, ptr %11, align 4
  %130 = icmp ne i32 %129, -1
  br i1 %130, label %131, label %141

131:                                              ; preds = %128
  %132 = load i32, ptr %9, align 4
  %133 = icmp sle i32 %132, 4
  br i1 %133, label %134, label %141

134:                                              ; preds = %131
  %135 = load ptr, ptr %5, align 8
  %136 = load i32, ptr %11, align 4
  %137 = load ptr, ptr %6, align 8
  %138 = load i32, ptr %7, align 4
  %139 = load i32, ptr %9, align 4
  %140 = call ptr @proto_tree_add_item(ptr noundef %135, i32 noundef %136, ptr noundef %137, i32 noundef %138, i32 noundef %139, i32 noundef -2147483648)
  br label %149

141:                                              ; preds = %131, %128
  %142 = load ptr, ptr %5, align 8
  %143 = load i32, ptr @hf_usb_vid_control_value, align 4
  %144 = load ptr, ptr %6, align 8
  %145 = load i32, ptr %7, align 4
  %146 = load i32, ptr %9, align 4
  %147 = load ptr, ptr %10, align 8
  %148 = call ptr (ptr, i32, ptr, i32, i32, ptr, ptr, ...) @proto_tree_add_bytes_format(ptr noundef %142, i32 noundef %143, ptr noundef %144, i32 noundef %145, i32 noundef %146, ptr noundef null, ptr noundef @.str.595, ptr noundef %147)
  br label %149

149:                                              ; preds = %141, %134
  call void @llvm.lifetime.end.p0(i64 4, ptr %11) #6
  call void @llvm.lifetime.end.p0(i64 8, ptr %10) #6
  call void @llvm.lifetime.end.p0(i64 4, ptr %9) #6
  ret void
}