; Function Attrs: null_pointer_is_valid sspstrong uwtable
define internal fastcc void @dissect_usb_vid_control_value(ptr noundef %0, ptr noundef %1, i32 noundef %2, i8 noundef zeroext %3) unnamed_addr #0 {
  switch i8 %3, label %.thread [
    i8 -121, label %10
    i8 -126, label %6
    i8 3, label %6
    i8 -125, label %7
    i8 4, label %7
    i8 -124, label %8
    i8 -127, label %9
    i8 1, label %9
    i8 0, label %9
  ]

.thread:                                          ; preds = %4
  %5 = tail call i32 @tvb_reported_length_remaining(ptr noundef %1, i32 noundef %2)
  br label %.thread44

6:                                                ; preds = %4, %4
  br label %10

7:                                                ; preds = %4, %4
  br label %10

8:                                                ; preds = %4
  br label %10

9:                                                ; preds = %4, %4, %4
  br label %10

10:                                               ; preds = %4, %9, %8, %7, %6
  %.035.in = phi ptr [ @hf_usb_vid_control_cur, %9 ], [ @hf_usb_vid_control_res, %8 ], [ @hf_usb_vid_control_max, %7 ], [ @hf_usb_vid_control_min, %6 ], [ @hf_usb_vid_control_default, %4 ]
  %.0 = phi ptr [ @.str.591, %9 ], [ @.str.42, %8 ], [ @.str.590, %7 ], [ @.str.589, %6 ], [ @.str.588, %4 ]
  %.035 = load i32, ptr %.035.in, align 4
  %11 = tail call i32 @tvb_reported_length_remaining(ptr noundef %1, i32 noundef %2)
  %.not = icmp eq i32 %.035, -1
  br i1 %.not, label %.thread44, label %12

12:                                               ; preds = %10
  %13 = tail call ptr @proto_registrar_get_nth(i32 noundef %.035)
  %14 = getelementptr inbounds nuw i8, ptr %13, i64 16
  %15 = load i32, ptr %14, align 8
  switch i32 %15, label %16 [
    i32 12, label %17
    i32 13, label %17
    i32 14, label %17
    i32 15, label %17
    i32 16, label %17
    i32 17, label %17
    i32 18, label %17
    i32 19, label %17
    i32 3, label %17
    i32 4, label %17
    i32 5, label %17
    i32 6, label %17
    i32 7, label %17
    i32 35, label %17
    i32 8, label %17
    i32 9, label %17
    i32 10, label %17
    i32 11, label %17
  ]

16:                                               ; preds = %12
  tail call void (ptr, ...) @proto_report_dissector_bug(ptr noundef nonnull @.str.592, ptr noundef nonnull @.str.593, i32 noundef 1747, ptr noundef nonnull @.str.594) #7
  unreachable

17:                                               ; preds = %12, %12, %12, %12, %12, %12, %12, %12, %12, %12, %12, %12, %12, %12, %12, %12, %12, %12
  %18 = icmp slt i32 %11, 5
  br i1 %18, label %19, label %.thread44

19:                                               ; preds = %17
  %20 = tail call ptr @proto_tree_add_item(ptr noundef %0, i32 noundef %.035, ptr noundef %1, i32 noundef %2, i32 noundef %11, i32 noundef -2147483648)
  br label %24

.thread44:                                        ; preds = %10, %.thread, %17
  %.04148 = phi ptr [ %.0, %17 ], [ %.0, %10 ], [ @.str.502, %.thread ]
  %21 = phi i32 [ %11, %17 ], [ %11, %10 ], [ %5, %.thread ]
  %22 = load i32, ptr @hf_usb_vid_control_value, align 4
  %23 = tail call ptr (ptr, i32, ptr, i32, i32, ptr, ptr, ...) @proto_tree_add_bytes_format(ptr noundef %0, i32 noundef %22, ptr noundef %1, i32 noundef %2, i32 noundef %21, ptr noundef null, ptr noundef nonnull @.str.595, ptr noundef nonnull %.04148)
  br label %24

24:                                               ; preds = %.thread44, %19
  ret void
}